target datalayout = "e-m:e-p270:32:32-p271:32:32-p272:64:64-i64:64-i128:128-f80:128-n8:16:32:64-S128"
target triple = "x86_64-unknown-linux-gnu"

%"class.std::__cxx11::basic_string" = type { %"struct.std::__cxx11::basic_string<char>::_Alloc_hider", i64, %union.anon }
%"struct.std::__cxx11::basic_string<char>::_Alloc_hider" = type { ptr }
%union.anon = type { i64, [8 x i8] }
%"class.rocksdb::SemiStructuredUniqueIdGen" = type { i64, i64, %"struct.std::atomic.112", i64 }
%"struct.std::atomic.112" = type { %"struct.std::__atomic_base.113" }
%"struct.std::__atomic_base.113" = type { i64 }

@_ZZN7rocksdb12_GLOBAL__N_114DbSessionIdGenEvE3gen = internal global %"class.rocksdb::SemiStructuredUniqueIdGen" zeroinitializer, align 8
@_ZGVZN7rocksdb12_GLOBAL__N_114DbSessionIdGenEvE3gen = internal global i64 0, align 8

; Function Attrs: mustprogress uwtable
define linkonce_odr void @_ZN7rocksdb25SemiStructuredUniqueIdGenC2Ev(ptr noundef nonnull align 8 dereferenceable(32) %this) unnamed_addr #0 comdat align 2 {
entry:
  %this.addr = alloca ptr, align 8
  store ptr %this, ptr %this.addr, align 8
  %this1 = load ptr, ptr %this.addr, align 8
  call void @_ZN7rocksdb25SemiStructuredUniqueIdGen5ResetEv(ptr noundef nonnull align 8 dereferenceable(32) %this1)
  ret void
}

; Function Attrs: mustprogress uwtable
define internal noundef ptr @_ZN7rocksdb12_GLOBAL__N_114DbSessionIdGenEv() #0 personality ptr @__gxx_personality_v0 {
entry:
  %exn.slot = alloca ptr, align 8
  %ehselector.slot = alloca i32, align 4
  %0 = load atomic i8, ptr @_ZGVZN7rocksdb12_GLOBAL__N_114DbSessionIdGenEvE3gen acquire, align 8
  %guard.uninitialized = icmp eq i8 %0, 0
  br i1 %guard.uninitialized, label %init.check, label %init.end, !prof !84

init.check:                                       ; preds = %entry
  %1 = call i32 @__cxa_guard_acquire(ptr @_ZGVZN7rocksdb12_GLOBAL__N_114DbSessionIdGenEvE3gen) #3
  %tobool = icmp ne i32 %1, 0
  br i1 %tobool, label %init, label %init.end

init:                                             ; preds = %init.check
  invoke void @_ZN7rocksdb25SemiStructuredUniqueIdGenC2Ev(ptr noundef nonnull align 8 dereferenceable(32) @_ZZN7rocksdb12_GLOBAL__N_114DbSessionIdGenEvE3gen)
          to label %invoke.cont unwind label %lpad

invoke.cont:                                      ; preds = %init
  call void @__cxa_guard_release(ptr @_ZGVZN7rocksdb12_GLOBAL__N_114DbSessionIdGenEvE3gen) #3
  br label %init.end

init.end:                                         ; preds = %invoke.cont, %init.check, %entry
  ret ptr @_ZZN7rocksdb12_GLOBAL__N_114DbSessionIdGenEvE3gen

lpad:                                             ; preds = %init
  %2 = landingpad { ptr, i32 }
          cleanup
  %3 = extractvalue { ptr, i32 } %2, 0
  store ptr %3, ptr %exn.slot, align 8
  %4 = extractvalue { ptr, i32 } %2, 1
  store i32 %4, ptr %ehselector.slot, align 4
  call void @__cxa_guard_abort(ptr @_ZGVZN7rocksdb12_GLOBAL__N_114DbSessionIdGenEvE3gen) #3
  br label %eh.resume

eh.resume:                                        ; preds = %lpad
  %exn = load ptr, ptr %exn.slot, align 8
  %sel = load i32, ptr %ehselector.slot, align 4
  %lpad.val = insertvalue { ptr, i32 } poison, ptr %exn, 0
  %lpad.val1 = insertvalue { ptr, i32 } %lpad.val, i32 %sel, 1
  resume { ptr, i32 } %lpad.val1
}

; Function Attrs: mustprogress uwtable
define void @_ZN7rocksdb6DBImpl19GenerateDbSessionIdB5cxx11EPNS_3EnvE(ptr noalias sret(%"class.std::__cxx11::basic_string") align 8 %agg.result, ptr noundef %0) #0 align 2 {
entry:
  %result.ptr = alloca ptr, align 8
  %.addr = alloca ptr, align 8
  %gen = alloca ptr, align 8
  %lo = alloca i64, align 8
  %hi = alloca i64, align 8
  store ptr %agg.result, ptr %result.ptr, align 8
  store ptr %0, ptr %.addr, align 8
  %call = call noundef ptr @_ZN7rocksdb12_GLOBAL__N_114DbSessionIdGenEv()
  store ptr %call, ptr %gen, align 8
  %1 = load ptr, ptr %gen, align 8
  call void @_ZN7rocksdb25SemiStructuredUniqueIdGen12GenerateNextEPmS1_(ptr noundef nonnull align 8 dereferenceable(32) %1, ptr noundef %hi, ptr noundef %lo)
  %2 = load i64, ptr %lo, align 8
  %cmp = icmp eq i64 %2, 0
  br i1 %cmp, label %if.then, label %if.end

if.then:                                          ; preds = %entry
  %3 = load ptr, ptr %gen, align 8
  call void @_ZN7rocksdb25SemiStructuredUniqueIdGen12GenerateNextEPmS1_(ptr noundef nonnull align 8 dereferenceable(32) %3, ptr noundef %hi, ptr noundef %lo)
  br label %if.end

if.end:                                           ; preds = %if.then, %entry
  %4 = load i64, ptr %hi, align 8
  %5 = load i64, ptr %lo, align 8
  call void @_ZN7rocksdb15EncodeSessionIdB5cxx11Emm(ptr sret(%"class.std::__cxx11::basic_string") align 8 %agg.result, i64 noundef %4, i64 noundef %5)
  ret void
}