; Function Attrs: mustprogress uwtable
define void @_ZN7rocksdb6DBImpl19GenerateDbSessionIdB5cxx11EPNS_3EnvE(ptr noalias sret(%"class.std::__cxx11::basic_string") align 8 %agg.result, ptr nocapture readnone %0) local_unnamed_addr #5 align 2 personality ptr @__gxx_personality_v0 {
entry:
  %lo = alloca i64, align 8
  %hi = alloca i64, align 8
  %1 = load atomic i8, ptr @_ZGVZN7rocksdb12_GLOBAL__N_114DbSessionIdGenEvE3gen acquire, align 8
  %guard.uninitialized.i = icmp eq i8 %1, 0
  br i1 %guard.uninitialized.i, label %init.check.i, label %_ZN7rocksdb12_GLOBAL__N_114DbSessionIdGenEv.exit, !prof !443

init.check.i:                                     ; preds = %entry
  %2 = tail call i32 @__cxa_guard_acquire(ptr nonnull @_ZGVZN7rocksdb12_GLOBAL__N_114DbSessionIdGenEvE3gen) #34
  %tobool.not.i = icmp eq i32 %2, 0
  br i1 %tobool.not.i, label %_ZN7rocksdb12_GLOBAL__N_114DbSessionIdGenEv.exit, label %init.i

init.i:                                           ; preds = %init.check.i
  invoke void @_ZN7rocksdb25SemiStructuredUniqueIdGen5ResetEv(ptr noundef nonnull align 8 dereferenceable(32) @_ZZN7rocksdb12_GLOBAL__N_114DbSessionIdGenEvE3gen)
          to label %invoke.cont.i unwind label %lpad.i

invoke.cont.i:                                    ; preds = %init.i
  tail call void @__cxa_guard_release(ptr nonnull @_ZGVZN7rocksdb12_GLOBAL__N_114DbSessionIdGenEvE3gen) #34
  br label %_ZN7rocksdb12_GLOBAL__N_114DbSessionIdGenEv.exit

lpad.i:                                           ; preds = %init.i
  %3 = landingpad { ptr, i32 }
          cleanup
  tail call void @__cxa_guard_abort(ptr nonnull @_ZGVZN7rocksdb12_GLOBAL__N_114DbSessionIdGenEvE3gen) #34
  resume { ptr, i32 } %3

_ZN7rocksdb12_GLOBAL__N_114DbSessionIdGenEv.exit: ; preds = %entry, %init.check.i, %invoke.cont.i
  call void @_ZN7rocksdb25SemiStructuredUniqueIdGen12GenerateNextEPmS1_(ptr noundef nonnull align 8 dereferenceable(32) @_ZZN7rocksdb12_GLOBAL__N_114DbSessionIdGenEvE3gen, ptr noundef nonnull %hi, ptr noundef nonnull %lo)
  %4 = load i64, ptr %lo, align 8
  %cmp = icmp eq i64 %4, 0
  br i1 %cmp, label %if.then, label %if.end

if.then:                                          ; preds = %_ZN7rocksdb12_GLOBAL__N_114DbSessionIdGenEv.exit
  call void @_ZN7rocksdb25SemiStructuredUniqueIdGen12GenerateNextEPmS1_(ptr noundef nonnull align 8 dereferenceable(32) @_ZZN7rocksdb12_GLOBAL__N_114DbSessionIdGenEvE3gen, ptr noundef nonnull %hi, ptr noundef nonnull %lo)
  %.pre = load i64, ptr %lo, align 8
  br label %if.end

if.end:                                           ; preds = %if.then, %_ZN7rocksdb12_GLOBAL__N_114DbSessionIdGenEv.exit
  %5 = phi i64 [ %.pre, %if.then ], [ %4, %_ZN7rocksdb12_GLOBAL__N_114DbSessionIdGenEv.exit ]
  %6 = load i64, ptr %hi, align 8
  call void @_ZN7rocksdb15EncodeSessionIdB5cxx11Emm(ptr sret(%"class.std::__cxx11::basic_string") align 8 %agg.result, i64 noundef %6, i64 noundef %5)
  ret void
}